target datalayout = "e-m:e-p270:32:32-p271:32:32-p272:64:64-i64:64-i128:128-f80:128-n8:16:32:64-S128"
target triple = "x86_64-pc-linux-gnu"

%class.OopHandle = type { ptr }
%class.ClassLoaderData = type { %class.WeakHandle, %class.OopHandle, ptr, ptr, i8, i8, i8, i32, i32, %"class.ClassLoaderData::ChunkedHandleList", ptr, ptr, ptr, ptr, ptr, ptr, ptr, ptr, ptr, ptr, ptr, ptr, i64 }
%class.WeakHandle = type { ptr }
%"class.ClassLoaderData::ChunkedHandleList" = type { ptr }
%class.GrowableArrayView = type { %class.GrowableArrayBase, ptr }
%class.GrowableArrayBase = type { i32, i32 }

@g_assert_poison = external global ptr, align 8
@.str.8 = private unnamed_addr constant [48 x i8] c"src/hotspot/share/classfile/classLoaderData.cpp\00", align 1
@_ZN20ClassLoaderDataGraph30_should_clean_deallocate_listsE = external global i8, align 1

; Function Attrs: mustprogress nounwind uwtable
define linkonce_odr hidden void @_ZN20ClassLoaderDataGraph33set_should_clean_deallocate_listsEv() #1 comdat align 2 {
  store i8 1, ptr @_ZN20ClassLoaderDataGraph30_should_clean_deallocate_listsE, align 1
  ret void
}

; Function Attrs: mustprogress nounwind uwtable
define linkonce_odr hidden void @_ZN15MetadataFactory13free_metadataI13InstanceKlassEEvP15ClassLoaderDataPT_(ptr noundef %0, ptr noundef %1) #1 comdat align 2 {
  %3 = alloca ptr, align 8
  %4 = alloca ptr, align 8
  %5 = alloca i32, align 4
  %6 = alloca i8, align 1
  store ptr %0, ptr %3, align 8
  store ptr %1, ptr %4, align 8
  %7 = load ptr, ptr %4, align 8
  %8 = icmp ne ptr %7, null
  br i1 %8, label %9, label %30

9:                                                ; preds = %2
  %10 = load ptr, ptr %4, align 8
  %11 = load ptr, ptr %10, align 8
  %12 = getelementptr inbounds ptr, ptr %11, i64 6
  %13 = load ptr, ptr %12, align 8
  %14 = call noundef i32 %13(ptr noundef nonnull align 8 dereferenceable(464) %10)
  store i32 %14, ptr %5, align 4
  %15 = load ptr, ptr %4, align 8
  %16 = load ptr, ptr %3, align 8
  call void @_ZN13InstanceKlass19deallocate_contentsEP15ClassLoaderData(ptr noundef nonnull align 8 dereferenceable(464) %15, ptr noundef %16)
  %17 = load ptr, ptr %4, align 8
  %18 = load ptr, ptr %17, align 8
  %19 = getelementptr inbounds ptr, ptr %18, i64 1
  %20 = load ptr, ptr %19, align 8
  %21 = call noundef zeroext i1 %20(ptr noundef nonnull align 8 dereferenceable(196) %17)
  %22 = zext i1 %21 to i8
  store i8 %22, ptr %6, align 1
  %23 = load ptr, ptr %3, align 8
  %24 = call noundef ptr @_ZN15ClassLoaderData18metaspace_non_nullEv(ptr noundef nonnull align 8 dereferenceable(160) %23)
  %25 = load ptr, ptr %4, align 8
  %26 = load i32, ptr %5, align 4
  %27 = sext i32 %26 to i64
  %28 = load i8, ptr %6, align 1
  %29 = trunc i8 %28 to i1
  call void @_ZN20ClassLoaderMetaspace10deallocateEPP12MetaWordImplmb(ptr noundef nonnull align 8 dereferenceable(32) %24, ptr noundef %25, i64 noundef %27, i1 noundef zeroext %29)
  br label %30

30:                                               ; preds = %9, %2
  ret void
}

; Function Attrs: mustprogress nounwind uwtable
define linkonce_odr hidden void @_ZN15MetadataFactory13free_metadataI12ConstantPoolEEvP15ClassLoaderDataPT_(ptr noundef %0, ptr noundef %1) #1 comdat align 2 {
  %3 = alloca ptr, align 8
  %4 = alloca ptr, align 8
  %5 = alloca i32, align 4
  %6 = alloca i8, align 1
  store ptr %0, ptr %3, align 8
  store ptr %1, ptr %4, align 8
  %7 = load ptr, ptr %4, align 8
  %8 = icmp ne ptr %7, null
  br i1 %8, label %9, label %30

9:                                                ; preds = %2
  %10 = load ptr, ptr %4, align 8
  %11 = load ptr, ptr %10, align 8
  %12 = getelementptr inbounds ptr, ptr %11, i64 6
  %13 = load ptr, ptr %12, align 8
  %14 = call noundef i32 %13(ptr noundef nonnull align 8 dereferenceable(68) %10)
  store i32 %14, ptr %5, align 4
  %15 = load ptr, ptr %4, align 8
  %16 = load ptr, ptr %3, align 8
  call void @_ZN12ConstantPool19deallocate_contentsEP15ClassLoaderData(ptr noundef nonnull align 8 dereferenceable(68) %15, ptr noundef %16)
  %17 = load ptr, ptr %4, align 8
  %18 = load ptr, ptr %17, align 8
  %19 = getelementptr inbounds ptr, ptr %18, i64 1
  %20 = load ptr, ptr %19, align 8
  %21 = call noundef zeroext i1 %20(ptr noundef nonnull align 8 dereferenceable(8) %17)
  %22 = zext i1 %21 to i8
  store i8 %22, ptr %6, align 1
  %23 = load ptr, ptr %3, align 8
  %24 = call noundef ptr @_ZN15ClassLoaderData18metaspace_non_nullEv(ptr noundef nonnull align 8 dereferenceable(160) %23)
  %25 = load ptr, ptr %4, align 8
  %26 = load i32, ptr %5, align 4
  %27 = sext i32 %26 to i64
  %28 = load i8, ptr %6, align 1
  %29 = trunc i8 %28 to i1
  call void @_ZN20ClassLoaderMetaspace10deallocateEPP12MetaWordImplmb(ptr noundef nonnull align 8 dereferenceable(32) %24, ptr noundef %25, i64 noundef %27, i1 noundef zeroext %29)
  br label %30

30:                                               ; preds = %9, %2
  ret void
}

; Function Attrs: mustprogress nounwind uwtable
define linkonce_odr hidden void @_ZN15MetadataFactory13free_metadataI6MethodEEvP15ClassLoaderDataPT_(ptr noundef %0, ptr noundef %1) #1 comdat align 2 {
  %3 = alloca ptr, align 8
  %4 = alloca ptr, align 8
  %5 = alloca i32, align 4
  %6 = alloca i8, align 1
  store ptr %0, ptr %3, align 8
  store ptr %1, ptr %4, align 8
  %7 = load ptr, ptr %4, align 8
  %8 = icmp ne ptr %7, null
  br i1 %8, label %9, label %30

9:                                                ; preds = %2
  %10 = load ptr, ptr %4, align 8
  %11 = load ptr, ptr %10, align 8
  %12 = getelementptr inbounds ptr, ptr %11, i64 6
  %13 = load ptr, ptr %12, align 8
  %14 = call noundef i32 %13(ptr noundef nonnull align 8 dereferenceable(88) %10)
  store i32 %14, ptr %5, align 4
  %15 = load ptr, ptr %4, align 8
  %16 = load ptr, ptr %3, align 8
  call void @_ZN6Method19deallocate_contentsEP15ClassLoaderData(ptr noundef nonnull align 8 dereferenceable(88) %15, ptr noundef %16)
  %17 = load ptr, ptr %4, align 8
  %18 = load ptr, ptr %17, align 8
  %19 = getelementptr inbounds ptr, ptr %18, i64 1
  %20 = load ptr, ptr %19, align 8
  %21 = call noundef zeroext i1 %20(ptr noundef nonnull align 8 dereferenceable(8) %17)
  %22 = zext i1 %21 to i8
  store i8 %22, ptr %6, align 1
  %23 = load ptr, ptr %3, align 8
  %24 = call noundef ptr @_ZN15ClassLoaderData18metaspace_non_nullEv(ptr noundef nonnull align 8 dereferenceable(160) %23)
  %25 = load ptr, ptr %4, align 8
  %26 = load i32, ptr %5, align 4
  %27 = sext i32 %26 to i64
  %28 = load i8, ptr %6, align 1
  %29 = trunc i8 %28 to i1
  call void @_ZN20ClassLoaderMetaspace10deallocateEPP12MetaWordImplmb(ptr noundef nonnull align 8 dereferenceable(32) %24, ptr noundef %25, i64 noundef %27, i1 noundef zeroext %29)
  br label %30

30:                                               ; preds = %9, %2
  ret void
}

; Function Attrs: mustprogress nounwind uwtable
define linkonce_odr hidden void @_ZN17GrowableArrayViewIP8MetadataE9remove_atEi(ptr noundef nonnull align 8 dereferenceable(16) %0, i32 noundef %1) #1 comdat align 2 {
  %3 = alloca ptr, align 8
  %4 = alloca i32, align 4
  %5 = alloca i32, align 4
  store ptr %0, ptr %3, align 8
  store i32 %1, ptr %4, align 4
  %6 = load ptr, ptr %3, align 8
  %7 = load i32, ptr %4, align 4
  %8 = add nsw i32 %7, 1
  store i32 %8, ptr %5, align 4
  br label %9

9:                                                ; preds = %27, %2
  %10 = load i32, ptr %5, align 4
  %11 = getelementptr inbounds %class.GrowableArrayBase, ptr %6, i32 0, i32 0
  %12 = load i32, ptr %11, align 8
  %13 = icmp slt i32 %10, %12
  br i1 %13, label %14, label %30

14:                                               ; preds = %9
  %15 = getelementptr inbounds %class.GrowableArrayView, ptr %6, i32 0, i32 1
  %16 = load ptr, ptr %15, align 8
  %17 = load i32, ptr %5, align 4
  %18 = sext i32 %17 to i64
  %19 = getelementptr inbounds ptr, ptr %16, i64 %18
  %20 = load ptr, ptr %19, align 8
  %21 = getelementptr inbounds %class.GrowableArrayView, ptr %6, i32 0, i32 1
  %22 = load ptr, ptr %21, align 8
  %23 = load i32, ptr %5, align 4
  %24 = sub nsw i32 %23, 1
  %25 = sext i32 %24 to i64
  %26 = getelementptr inbounds ptr, ptr %22, i64 %25
  store ptr %20, ptr %26, align 8
  br label %27

27:                                               ; preds = %14
  %28 = load i32, ptr %5, align 4
  %29 = add nsw i32 %28, 1
  store i32 %29, ptr %5, align 4
  br label %9, !llvm.loop !21

30:                                               ; preds = %9
  %31 = getelementptr inbounds %class.GrowableArrayBase, ptr %6, i32 0, i32 0
  %32 = load i32, ptr %31, align 8
  %33 = add nsw i32 %32, -1
  store i32 %33, ptr %31, align 8
  ret void
}

; Function Attrs: mustprogress nounwind uwtable
define linkonce_odr hidden noundef nonnull align 8 dereferenceable(8) ptr @_ZN17GrowableArrayViewIP8MetadataE2atEi(ptr noundef nonnull align 8 dereferenceable(16) %0, i32 noundef %1) #1 comdat align 2 {
  %3 = alloca ptr, align 8
  %4 = alloca i32, align 4
  store ptr %0, ptr %3, align 8
  store i32 %1, ptr %4, align 4
  %5 = load ptr, ptr %3, align 8
  %6 = getelementptr inbounds %class.GrowableArrayView, ptr %5, i32 0, i32 1
  %7 = load ptr, ptr %6, align 8
  %8 = load i32, ptr %4, align 4
  %9 = sext i32 %8 to i64
  %10 = getelementptr inbounds ptr, ptr %7, i64 %9
  ret ptr %10
}

; Function Attrs: mustprogress nounwind uwtable
define linkonce_odr hidden noundef i32 @_ZNK17GrowableArrayBase6lengthEv(ptr noundef nonnull align 4 dereferenceable(8) %0) #1 comdat align 2 {
  %2 = alloca ptr, align 8
  store ptr %0, ptr %2, align 8
  %3 = load ptr, ptr %2, align 8
  %4 = getelementptr inbounds %class.GrowableArrayBase, ptr %3, i32 0, i32 0
  %5 = load i32, ptr %4, align 4
  ret i32 %5
}

; Function Attrs: mustprogress nounwind uwtable
define hidden void @_ZN15ClassLoaderData20free_deallocate_listEv(ptr noundef nonnull align 8 dereferenceable(160) %0) #1 align 2 {
  %2 = alloca ptr, align 8
  %3 = alloca i32, align 4
  %4 = alloca ptr, align 8
  store ptr %0, ptr %2, align 8
  %5 = load ptr, ptr %2, align 8
  %6 = getelementptr inbounds %class.ClassLoaderData, ptr %5, i32 0, i32 16
  %7 = load ptr, ptr %6, align 8
  %8 = icmp eq ptr %7, null
  br i1 %8, label %9, label %10

9:                                                ; preds = %1
  br label %68

10:                                               ; preds = %1
  %11 = getelementptr inbounds %class.ClassLoaderData, ptr %5, i32 0, i32 16
  %12 = load ptr, ptr %11, align 8
  %13 = call noundef i32 @_ZNK17GrowableArrayBase6lengthEv(ptr noundef nonnull align 4 dereferenceable(8) %12)
  %14 = sub nsw i32 %13, 1
  store i32 %14, ptr %3, align 4
  br label %15

15:                                               ; preds = %65, %10
  %16 = load i32, ptr %3, align 4
  %17 = icmp sge i32 %16, 0
  br i1 %17, label %18, label %68

18:                                               ; preds = %15
  %19 = getelementptr inbounds %class.ClassLoaderData, ptr %5, i32 0, i32 16
  %20 = load ptr, ptr %19, align 8
  %21 = load i32, ptr %3, align 4
  %22 = call noundef nonnull align 8 dereferenceable(8) ptr @_ZN17GrowableArrayViewIP8MetadataE2atEi(ptr noundef nonnull align 8 dereferenceable(16) %20, i32 noundef %21)
  %23 = load ptr, ptr %22, align 8
  store ptr %23, ptr %4, align 8
  %24 = load ptr, ptr %4, align 8
  %25 = load ptr, ptr %24, align 8
  %26 = getelementptr inbounds ptr, ptr %25, i64 12
  %27 = load ptr, ptr %26, align 8
  %28 = call noundef zeroext i1 %27(ptr noundef nonnull align 8 dereferenceable(8) %24)
  br i1 %28, label %63, label %29

29:                                               ; preds = %18
  %30 = getelementptr inbounds %class.ClassLoaderData, ptr %5, i32 0, i32 16
  %31 = load ptr, ptr %30, align 8
  %32 = load i32, ptr %3, align 4
  call void @_ZN17GrowableArrayViewIP8MetadataE9remove_atEi(ptr noundef nonnull align 8 dereferenceable(16) %31, i32 noundef %32)
  %33 = load ptr, ptr %4, align 8
  %34 = load ptr, ptr %33, align 8
  %35 = getelementptr inbounds ptr, ptr %34, i64 2
  %36 = load ptr, ptr %35, align 8
  %37 = call noundef zeroext i1 %36(ptr noundef nonnull align 8 dereferenceable(8) %33)
  br i1 %37, label %38, label %40

38:                                               ; preds = %29
  %39 = load ptr, ptr %4, align 8
  call void @_ZN15MetadataFactory13free_metadataI6MethodEEvP15ClassLoaderDataPT_(ptr noundef %5, ptr noundef %39)
  br label %62

40:                                               ; preds = %29
  %41 = load ptr, ptr %4, align 8
  %42 = load ptr, ptr %41, align 8
  %43 = getelementptr inbounds ptr, ptr %42, i64 4
  %44 = load ptr, ptr %43, align 8
  %45 = call noundef zeroext i1 %44(ptr noundef nonnull align 8 dereferenceable(8) %41)
  br i1 %45, label %46, label %48

46:                                               ; preds = %40
  %47 = load ptr, ptr %4, align 8
  call void @_ZN15MetadataFactory13free_metadataI12ConstantPoolEEvP15ClassLoaderDataPT_(ptr noundef %5, ptr noundef %47)
  br label %61

48:                                               ; preds = %40
  %49 = load ptr, ptr %4, align 8
  %50 = load ptr, ptr %49, align 8
  %51 = getelementptr inbounds ptr, ptr %50, i64 1
  %52 = load ptr, ptr %51, align 8
  %53 = call noundef zeroext i1 %52(ptr noundef nonnull align 8 dereferenceable(8) %49)
  br i1 %53, label %54, label %56

54:                                               ; preds = %48
  %55 = load ptr, ptr %4, align 8
  call void @_ZN15MetadataFactory13free_metadataI13InstanceKlassEEvP15ClassLoaderDataPT_(ptr noundef %5, ptr noundef %55)
  br label %60

56:                                               ; preds = %48
  br label %57

57:                                               ; preds = %56
  %58 = load ptr, ptr @g_assert_poison, align 8
  store i8 88, ptr %58, align 1
  call void @_Z28report_should_not_reach_herePKci(ptr noundef @.str.8, i32 noundef 894) #13
  unreachable

59:                                               ; No predecessors!
  br label %60

60:                                               ; preds = %59, %54
  br label %61

61:                                               ; preds = %60, %46
  br label %62

62:                                               ; preds = %61, %38
  br label %64

63:                                               ; preds = %18
  call void @_ZN20ClassLoaderDataGraph33set_should_clean_deallocate_listsEv()
  br label %64

64:                                               ; preds = %63, %62
  br label %65

65:                                               ; preds = %64
  %66 = load i32, ptr %3, align 4
  %67 = add nsw i32 %66, -1
  store i32 %67, ptr %3, align 4
  br label %15, !llvm.loop !20

68:                                               ; preds = %15, %9
  ret void
}