; Function Attrs: mustprogress nounwind uwtable
define hidden void @_ZN15ClassLoaderData20free_deallocate_listEv(ptr noundef nonnull align 8 dereferenceable(160) %0) local_unnamed_addr #0 align 2 {
  %2 = getelementptr inbounds i8, ptr %0, i64 104
  %3 = load ptr, ptr %2, align 8
  %4 = icmp eq ptr %3, null
  br i1 %4, label %.loopexit, label %5

5:                                                ; preds = %1
  %6 = load i32, ptr %3, align 4
  %7 = icmp sgt i32 %6, 0
  br i1 %7, label %.lr.ph.preheader, label %.loopexit

.lr.ph.preheader:                                 ; preds = %5
  %8 = zext nneg i32 %6 to i64
  br label %.lr.ph

.lr.ph:                                           ; preds = %.lr.ph.preheader, %78
  %indvars.iv = phi i64 [ %8, %.lr.ph.preheader ], [ %indvars.iv.next, %78 ]
  %indvars.iv.next = add nsw i64 %indvars.iv, -1
  %9 = load ptr, ptr %2, align 8
  %10 = getelementptr inbounds i8, ptr %9, i64 8
  %11 = load ptr, ptr %10, align 8
  %12 = getelementptr inbounds ptr, ptr %11, i64 %indvars.iv.next
  %13 = load ptr, ptr %12, align 8
  %14 = load ptr, ptr %13, align 8
  %15 = getelementptr inbounds i8, ptr %14, i64 96
  %16 = load ptr, ptr %15, align 8
  %17 = tail call noundef zeroext i1 %16(ptr noundef nonnull align 8 dereferenceable(8) %13) #16
  br i1 %17, label %77, label %18

18:                                               ; preds = %.lr.ph
  %19 = load ptr, ptr %2, align 8
  %20 = load i32, ptr %19, align 8
  %21 = sext i32 %20 to i64
  %22 = icmp slt i64 %indvars.iv, %21
  br i1 %22, label %.lr.ph.i, label %_ZN17GrowableArrayViewIP8MetadataE9remove_atEi.exit

.lr.ph.i:                                         ; preds = %18
  %23 = getelementptr inbounds i8, ptr %19, i64 8
  br label %24

24:                                               ; preds = %24, %.lr.ph.i
  %indvars.iv10.i = phi i64 [ %indvars.iv.next, %.lr.ph.i ], [ %indvars.iv.next11.i, %24 ]
  %indvars.iv.i = phi i64 [ %indvars.iv, %.lr.ph.i ], [ %indvars.iv.next.i, %24 ]
  %25 = load ptr, ptr %23, align 8
  %26 = getelementptr inbounds ptr, ptr %25, i64 %indvars.iv.i
  %27 = load ptr, ptr %26, align 8
  %28 = getelementptr inbounds ptr, ptr %25, i64 %indvars.iv10.i
  store ptr %27, ptr %28, align 8
  %indvars.iv.next.i = add nuw nsw i64 %indvars.iv.i, 1
  %29 = load i32, ptr %19, align 8
  %30 = sext i32 %29 to i64
  %31 = icmp slt i64 %indvars.iv.next.i, %30
  %indvars.iv.next11.i = add nuw nsw i64 %indvars.iv10.i, 1
  br i1 %31, label %24, label %_ZN17GrowableArrayViewIP8MetadataE9remove_atEi.exit, !llvm.loop !35

_ZN17GrowableArrayViewIP8MetadataE9remove_atEi.exit: ; preds = %24, %18
  %.lcssa.i = phi i32 [ %20, %18 ], [ %29, %24 ]
  %32 = add nsw i32 %.lcssa.i, -1
  store i32 %32, ptr %19, align 8
  %33 = load ptr, ptr %13, align 8
  %34 = getelementptr inbounds i8, ptr %33, i64 16
  %35 = load ptr, ptr %34, align 8
  %36 = tail call noundef zeroext i1 %35(ptr noundef nonnull align 8 dereferenceable(8) %13) #16
  %37 = load ptr, ptr %13, align 8
  br i1 %36, label %_ZN15MetadataFactory13free_metadataI6MethodEEvP15ClassLoaderDataPT_.exit, label %47

_ZN15MetadataFactory13free_metadataI6MethodEEvP15ClassLoaderDataPT_.exit: ; preds = %_ZN17GrowableArrayViewIP8MetadataE9remove_atEi.exit
  %38 = getelementptr inbounds i8, ptr %37, i64 48
  %39 = load ptr, ptr %38, align 8
  %40 = tail call noundef i32 %39(ptr noundef nonnull align 8 dereferenceable(88) %13) #16
  tail call void @_ZN6Method19deallocate_contentsEP15ClassLoaderData(ptr noundef nonnull align 8 dereferenceable(88) %13, ptr noundef nonnull %0) #16
  %41 = load ptr, ptr %13, align 8
  %42 = getelementptr inbounds i8, ptr %41, i64 8
  %43 = load ptr, ptr %42, align 8
  %44 = tail call noundef zeroext i1 %43(ptr noundef nonnull align 8 dereferenceable(8) %13) #16
  %45 = tail call noundef ptr @_ZN15ClassLoaderData18metaspace_non_nullEv(ptr noundef nonnull align 8 dereferenceable(160) %0)
  %46 = sext i32 %40 to i64
  tail call void @_ZN20ClassLoaderMetaspace10deallocateEPP12MetaWordImplmb(ptr noundef nonnull align 8 dereferenceable(32) %45, ptr noundef nonnull %13, i64 noundef %46, i1 noundef zeroext %44) #16
  br label %78

47:                                               ; preds = %_ZN17GrowableArrayViewIP8MetadataE9remove_atEi.exit
  %48 = getelementptr inbounds i8, ptr %37, i64 32
  %49 = load ptr, ptr %48, align 8
  %50 = tail call noundef zeroext i1 %49(ptr noundef nonnull align 8 dereferenceable(8) %13) #16
  %51 = load ptr, ptr %13, align 8
  br i1 %50, label %_ZN15MetadataFactory13free_metadataI12ConstantPoolEEvP15ClassLoaderDataPT_.exit, label %61

_ZN15MetadataFactory13free_metadataI12ConstantPoolEEvP15ClassLoaderDataPT_.exit: ; preds = %47
  %52 = getelementptr inbounds i8, ptr %51, i64 48
  %53 = load ptr, ptr %52, align 8
  %54 = tail call noundef i32 %53(ptr noundef nonnull align 8 dereferenceable(68) %13) #16
  tail call void @_ZN12ConstantPool19deallocate_contentsEP15ClassLoaderData(ptr noundef nonnull align 8 dereferenceable(68) %13, ptr noundef nonnull %0) #16
  %55 = load ptr, ptr %13, align 8
  %56 = getelementptr inbounds i8, ptr %55, i64 8
  %57 = load ptr, ptr %56, align 8
  %58 = tail call noundef zeroext i1 %57(ptr noundef nonnull align 8 dereferenceable(8) %13) #16
  %59 = tail call noundef ptr @_ZN15ClassLoaderData18metaspace_non_nullEv(ptr noundef nonnull align 8 dereferenceable(160) %0)
  %60 = sext i32 %54 to i64
  tail call void @_ZN20ClassLoaderMetaspace10deallocateEPP12MetaWordImplmb(ptr noundef nonnull align 8 dereferenceable(32) %59, ptr noundef nonnull %13, i64 noundef %60, i1 noundef zeroext %58) #16
  br label %78

61:                                               ; preds = %47
  %62 = getelementptr inbounds i8, ptr %51, i64 8
  %63 = load ptr, ptr %62, align 8
  %64 = tail call noundef zeroext i1 %63(ptr noundef nonnull align 8 dereferenceable(8) %13) #16
  br i1 %64, label %_ZN15MetadataFactory13free_metadataI13InstanceKlassEEvP15ClassLoaderDataPT_.exit, label %75

_ZN15MetadataFactory13free_metadataI13InstanceKlassEEvP15ClassLoaderDataPT_.exit: ; preds = %61
  %65 = load ptr, ptr %13, align 8
  %66 = getelementptr inbounds i8, ptr %65, i64 48
  %67 = load ptr, ptr %66, align 8
  %68 = tail call noundef i32 %67(ptr noundef nonnull align 8 dereferenceable(464) %13) #16
  tail call void @_ZN13InstanceKlass19deallocate_contentsEP15ClassLoaderData(ptr noundef nonnull align 8 dereferenceable(464) %13, ptr noundef nonnull %0) #16
  %69 = load ptr, ptr %13, align 8
  %70 = getelementptr inbounds i8, ptr %69, i64 8
  %71 = load ptr, ptr %70, align 8
  %72 = tail call noundef zeroext i1 %71(ptr noundef nonnull align 8 dereferenceable(196) %13) #16
  %73 = tail call noundef ptr @_ZN15ClassLoaderData18metaspace_non_nullEv(ptr noundef nonnull align 8 dereferenceable(160) %0)
  %74 = sext i32 %68 to i64
  tail call void @_ZN20ClassLoaderMetaspace10deallocateEPP12MetaWordImplmb(ptr noundef nonnull align 8 dereferenceable(32) %73, ptr noundef nonnull %13, i64 noundef %74, i1 noundef zeroext %72) #16
  br label %78

75:                                               ; preds = %61
  %76 = load ptr, ptr @g_assert_poison, align 8
  store i8 88, ptr %76, align 1
  tail call void @_Z28report_should_not_reach_herePKci(ptr noundef nonnull @.str.8, i32 noundef 894) #18
  unreachable

77:                                               ; preds = %.lr.ph
  store i8 1, ptr @_ZN20ClassLoaderDataGraph30_should_clean_deallocate_listsE, align 1
  br label %78

78:                                               ; preds = %77, %_ZN15MetadataFactory13free_metadataI12ConstantPoolEEvP15ClassLoaderDataPT_.exit, %_ZN15MetadataFactory13free_metadataI13InstanceKlassEEvP15ClassLoaderDataPT_.exit, %_ZN15MetadataFactory13free_metadataI6MethodEEvP15ClassLoaderDataPT_.exit
  %79 = icmp sgt i64 %indvars.iv, 1
  br i1 %79, label %.lr.ph, label %.loopexit, !llvm.loop !41

.loopexit:                                        ; preds = %78, %5, %1
  ret void
}